; Function Attrs: mustprogress uwtable
define void @_ZN6icu_7711MeasureUnit13forIdentifierENS_11StringPieceER10UErrorCode(ptr dead_on_unwind noalias writable sret(%"class.icu_77::MeasureUnit") align 8 %0, ptr %1, i32 %2, ptr noundef nonnull align 4 dereferenceable(4) %3) local_unnamed_addr #1 align 2 personality ptr @__gxx_personality_v0 {
  %5 = alloca %"class.icu_77::MeasureUnitImpl", align 8
  %6 = alloca %"class.icu_77::(anonymous namespace)::Parser", align 8
  call void @llvm.lifetime.start.p0(i64 168, ptr nonnull %5) #18
  call void @llvm.lifetime.start.p0(i64 64, ptr nonnull %6) #18
  call fastcc void @_ZN6icu_7712_GLOBAL__N_16Parser4fromENS_11StringPieceER10UErrorCode(ptr dead_on_unwind noalias writable align 8 %6, ptr %1, i32 %2, ptr noundef nonnull align 4 dereferenceable(4) %3)
  invoke fastcc void @_ZN6icu_7712_GLOBAL__N_16Parser5parseER10UErrorCode(ptr dead_on_unwind noalias nonnull writable align 8 %5, ptr noundef nonnull align 8 dereferenceable(58) %6, ptr noundef nonnull align 4 dereferenceable(4) %3)
          to label %7 unwind label %33

7:                                                ; preds = %4
  invoke void @_ZN6icu_7715MeasureUnitImpl9serializeER10UErrorCode(ptr noundef nonnull align 8 dereferenceable(168) %5, ptr noundef nonnull align 4 dereferenceable(4) %3)
          to label %.noexc unwind label %35

.noexc:                                           ; preds = %7
  invoke void @_ZN6icu_7711MeasureUnitC1EONS_15MeasureUnitImplE(ptr noundef nonnull align 8 dereferenceable(19) %0, ptr noundef nonnull align 8 dereferenceable(168) %5)
          to label %_ZNO6icu_7715MeasureUnitImpl5buildER10UErrorCode.exit unwind label %35

_ZNO6icu_7715MeasureUnitImpl5buildER10UErrorCode.exit: ; preds = %.noexc
  %8 = getelementptr inbounds nuw i8, ptr %5, i64 96
  call void @_ZN6icu_7715MaybeStackArrayIcLi40EED1Ev(ptr noundef nonnull align 8 dereferenceable(60) %8) #18
  %9 = getelementptr inbounds nuw i8, ptr %5, i64 8
  %10 = load i32, ptr %9, align 8, !tbaa !28
  %11 = icmp sgt i32 %10, 0
  br i1 %11, label %.lr.ph.i.i, label %._crit_edge.i.i

.lr.ph.i.i:                                       ; preds = %_ZNO6icu_7715MeasureUnitImpl5buildER10UErrorCode.exit
  %12 = getelementptr inbounds nuw i8, ptr %5, i64 16
  br label %21

._crit_edge.i.i:                                  ; preds = %28, %_ZNO6icu_7715MeasureUnitImpl5buildER10UErrorCode.exit
  %13 = getelementptr inbounds nuw i8, ptr %5, i64 28
  %14 = load i8, ptr %13, align 4, !tbaa !45
  %.not.i.i.i.i = icmp eq i8 %14, 0
  br i1 %.not.i.i.i.i, label %_ZN6icu_7715MeasureUnitImplD2Ev.exit, label %15

15:                                               ; preds = %._crit_edge.i.i
  %16 = getelementptr inbounds nuw i8, ptr %5, i64 16
  %17 = load ptr, ptr %16, align 8, !tbaa !33
  invoke void @uprv_free_77(ptr noundef %17)
          to label %_ZN6icu_7715MeasureUnitImplD2Ev.exit unwind label %18

18:                                               ; preds = %15
  %19 = landingpad { ptr, i32 }
          catch ptr null
  %20 = extractvalue { ptr, i32 } %19, 0
  call void @__clang_call_terminate(ptr %20) #20
  unreachable

21:                                               ; preds = %28, %.lr.ph.i.i
  %22 = phi i32 [ %10, %.lr.ph.i.i ], [ %29, %28 ]
  %indvars.iv.i.i = phi i64 [ 0, %.lr.ph.i.i ], [ %indvars.iv.next.i.i, %28 ]
  %23 = load ptr, ptr %12, align 8, !tbaa !33
  %24 = getelementptr inbounds nuw ptr, ptr %23, i64 %indvars.iv.i.i
  %25 = load ptr, ptr %24, align 8, !tbaa !34
  %26 = icmp eq ptr %25, null
  br i1 %26, label %28, label %27

27:                                               ; preds = %21
  call void @_ZN6icu_777UMemorydlEPv(ptr noundef nonnull %25) #18
  %.pre.i.i = load i32, ptr %9, align 8, !tbaa !28
  br label %28

28:                                               ; preds = %27, %21
  %29 = phi i32 [ %22, %21 ], [ %.pre.i.i, %27 ]
  %indvars.iv.next.i.i = add nuw nsw i64 %indvars.iv.i.i, 1
  %30 = sext i32 %29 to i64
  %31 = icmp slt i64 %indvars.iv.next.i.i, %30
  br i1 %31, label %21, label %._crit_edge.i.i, !llvm.loop !46

_ZN6icu_7715MeasureUnitImplD2Ev.exit:             ; preds = %._crit_edge.i.i, %15
  %32 = getelementptr inbounds nuw i8, ptr %6, i64 24
  call void @_ZN6icu_779BytesTrieD1Ev(ptr noundef nonnull align 8 dereferenceable(28) %32) #18
  call void @llvm.lifetime.end.p0(i64 64, ptr nonnull %6) #18
  call void @llvm.lifetime.end.p0(i64 168, ptr nonnull %5) #18
  ret void

33:                                               ; preds = %4
  %34 = landingpad { ptr, i32 }
          cleanup
  br label %37

35:                                               ; preds = %.noexc, %7
  %36 = landingpad { ptr, i32 }
          cleanup
  call void @_ZN6icu_7715MeasureUnitImplD2Ev(ptr noundef nonnull align 8 dereferenceable(168) %5) #18
  br label %37

37:                                               ; preds = %35, %33
  %.pn = phi { ptr, i32 } [ %36, %35 ], [ %34, %33 ]
  %38 = getelementptr inbounds nuw i8, ptr %6, i64 24
  call void @_ZN6icu_779BytesTrieD1Ev(ptr noundef nonnull align 8 dereferenceable(28) %38) #18
  call void @llvm.lifetime.end.p0(i64 64, ptr nonnull %6) #18
  call void @llvm.lifetime.end.p0(i64 168, ptr nonnull %5) #18
  resume { ptr, i32 } %.pn
}